; Function Attrs: mustprogress nounwind uwtable
define hidden void @_ZN5XHeap16free_empty_pagesEP22XRelocationSetSelectori(ptr noundef nonnull align 64 dereferenceable(4088) %0, ptr noundef %1, i32 noundef %2) local_unnamed_addr #1 align 2 {
  %4 = getelementptr inbounds i8, ptr %1, i64 336
  %5 = load i32, ptr %4, align 4
  %.not.i = icmp sge i32 %5, %2
  %6 = icmp ne i32 %5, 0
  %spec.select.i = and i1 %.not.i, %6
  br i1 %spec.select.i, label %.lr.ph.i, label %16

.lr.ph.i:                                         ; preds = %3
  %7 = getelementptr inbounds i8, ptr %1, i64 344
  %8 = load ptr, ptr %7, align 8
  %9 = sext i32 %5 to i64
  %10 = getelementptr inbounds ptr, ptr %8, i64 %9
  %11 = getelementptr inbounds i8, ptr %0, i64 792
  br label %12

12:                                               ; preds = %12, %.lr.ph.i
  %.sroa.0.09.i = phi ptr [ %8, %.lr.ph.i ], [ %14, %12 ]
  %13 = load ptr, ptr %.sroa.0.09.i, align 8
  %14 = getelementptr inbounds i8, ptr %.sroa.0.09.i, i64 8
  tail call void @_ZN10XPageTable6removeEP5XPage(ptr noundef nonnull align 8 dereferenceable(16) %11, ptr noundef %13) #12
  %.not.i4 = icmp eq ptr %14, %10
  br i1 %.not.i4, label %_ZN5XHeap10free_pagesEPK18GrowableArrayCHeapIP5XPageL8MEMFLAGS5EEb.exit, label %12, !llvm.loop !6

_ZN5XHeap10free_pagesEPK18GrowableArrayCHeapIP5XPageL8MEMFLAGS5EEb.exit: ; preds = %12
  %15 = getelementptr inbounds i8, ptr %0, i64 176
  tail call void @_ZN14XPageAllocator10free_pagesEPK18GrowableArrayCHeapIP5XPageL8MEMFLAGS5EEb(ptr noundef nonnull align 8 dereferenceable(609) %15, ptr noundef nonnull %4, i1 noundef zeroext true) #12
  store i32 0, ptr %4, align 4
  br label %16

16:                                               ; preds = %_ZN5XHeap10free_pagesEPK18GrowableArrayCHeapIP5XPageL8MEMFLAGS5EEb.exit, %3
  ret void
}